target datalayout = "e-m:e-p270:32:32-p271:32:32-p272:64:64-i64:64-i128:128-f80:128-n8:16:32:64-S128"
target triple = "x86_64-pc-linux-gnu"

%struct.mspack_system = type { ptr, ptr, ptr, ptr, ptr, ptr, ptr, ptr, ptr, ptr, ptr }

; Function Attrs: nounwind uwtable
define internal ptr @cabd_read_string(ptr noundef %0, ptr noundef %1, i32 noundef %2, ptr noundef %3) #0 {
  %5 = alloca ptr, align 8
  %6 = alloca ptr, align 8
  %7 = alloca ptr, align 8
  %8 = alloca i32, align 4
  %9 = alloca ptr, align 8
  %10 = alloca i64, align 8
  %11 = alloca [256 x i8], align 16
  %12 = alloca ptr, align 8
  %13 = alloca i32, align 4
  %14 = alloca i32, align 4
  %15 = alloca i32, align 4
  %16 = alloca i32, align 4
  store ptr %0, ptr %6, align 8, !tbaa !3
  store ptr %1, ptr %7, align 8, !tbaa !38
  store i32 %2, ptr %8, align 4, !tbaa !48
  store ptr %3, ptr %9, align 8, !tbaa !133
  call void @llvm.lifetime.start.p0(i64 8, ptr %10) #4
  %17 = load ptr, ptr %6, align 8, !tbaa !3
  %18 = getelementptr inbounds nuw %struct.mspack_system, ptr %17, i32 0, i32 5
  %19 = load ptr, ptr %18, align 8, !tbaa !135
  %20 = load ptr, ptr %7, align 8, !tbaa !38
  %21 = call i64 %19(ptr noundef %20)
  store i64 %21, ptr %10, align 8, !tbaa !78
  call void @llvm.lifetime.start.p0(i64 256, ptr %11) #4
  call void @llvm.lifetime.start.p0(i64 8, ptr %12) #4
  call void @llvm.lifetime.start.p0(i64 4, ptr %13) #4
  call void @llvm.lifetime.start.p0(i64 4, ptr %14) #4
  call void @llvm.lifetime.start.p0(i64 4, ptr %15) #4
  %22 = load ptr, ptr %6, align 8, !tbaa !3
  %23 = getelementptr inbounds nuw %struct.mspack_system, ptr %22, i32 0, i32 2
  %24 = load ptr, ptr %23, align 8, !tbaa !116
  %25 = load ptr, ptr %7, align 8, !tbaa !38
  %26 = getelementptr inbounds [256 x i8], ptr %11, i64 0, i64 0
  %27 = call i32 %24(ptr noundef %25, ptr noundef %26, i32 noundef 256)
  store i32 %27, ptr %13, align 4, !tbaa !48
  %28 = icmp sle i32 %27, 0
  br i1 %28, label %29, label %31

29:                                               ; preds = %4
  %30 = load ptr, ptr %9, align 8, !tbaa !133
  store i32 3, ptr %30, align 4, !tbaa !48
  store ptr null, ptr %5, align 8
  store i32 1, ptr %16, align 4
  br label %95

31:                                               ; preds = %4
  store i32 0, ptr %14, align 4, !tbaa !48
  store i32 0, ptr %15, align 4, !tbaa !48
  br label %32

32:                                               ; preds = %44, %31
  %33 = load i32, ptr %14, align 4, !tbaa !48
  %34 = load i32, ptr %13, align 4, !tbaa !48
  %35 = icmp slt i32 %33, %34
  br i1 %35, label %36, label %47

36:                                               ; preds = %32
  %37 = load i32, ptr %14, align 4, !tbaa !48
  %38 = sext i32 %37 to i64
  %39 = getelementptr inbounds [256 x i8], ptr %11, i64 0, i64 %38
  %40 = load i8, ptr %39, align 1, !tbaa !117
  %41 = icmp ne i8 %40, 0
  br i1 %41, label %43, label %42

42:                                               ; preds = %36
  store i32 1, ptr %15, align 4, !tbaa !48
  br label %47

43:                                               ; preds = %36
  br label %44

44:                                               ; preds = %43
  %45 = load i32, ptr %14, align 4, !tbaa !48
  %46 = add nsw i32 %45, 1
  store i32 %46, ptr %14, align 4, !tbaa !48
  br label %32

47:                                               ; preds = %42, %32
  %48 = load i32, ptr %14, align 4, !tbaa !48
  %49 = icmp eq i32 %48, 0
  br i1 %49, label %50, label %54

50:                                               ; preds = %47
  %51 = load i32, ptr %8, align 4, !tbaa !48
  %52 = icmp ne i32 %51, 0
  br i1 %52, label %54, label %53

53:                                               ; preds = %50
  store i32 0, ptr %15, align 4, !tbaa !48
  br label %54

54:                                               ; preds = %53, %50, %47
  %55 = load i32, ptr %15, align 4, !tbaa !48
  %56 = icmp ne i32 %55, 0
  br i1 %56, label %59, label %57

57:                                               ; preds = %54
  %58 = load ptr, ptr %9, align 8, !tbaa !133
  store i32 8, ptr %58, align 4, !tbaa !48
  store ptr null, ptr %5, align 8
  store i32 1, ptr %16, align 4
  br label %95

59:                                               ; preds = %54
  %60 = load i32, ptr %14, align 4, !tbaa !48
  %61 = add nsw i32 %60, 1
  store i32 %61, ptr %13, align 4, !tbaa !48
  %62 = load ptr, ptr %6, align 8, !tbaa !3
  %63 = getelementptr inbounds nuw %struct.mspack_system, ptr %62, i32 0, i32 4
  %64 = load ptr, ptr %63, align 8, !tbaa !96
  %65 = load ptr, ptr %7, align 8, !tbaa !38
  %66 = load i64, ptr %10, align 8, !tbaa !78
  %67 = load i32, ptr %13, align 4, !tbaa !48
  %68 = sext i32 %67 to i64
  %69 = add nsw i64 %66, %68
  %70 = call i32 %64(ptr noundef %65, i64 noundef %69, i32 noundef 0)
  %71 = icmp ne i32 %70, 0
  br i1 %71, label %72, label %74

72:                                               ; preds = %59
  %73 = load ptr, ptr %9, align 8, !tbaa !133
  store i32 5, ptr %73, align 4, !tbaa !48
  store ptr null, ptr %5, align 8
  store i32 1, ptr %16, align 4
  br label %95

74:                                               ; preds = %59
  %75 = load ptr, ptr %6, align 8, !tbaa !3
  %76 = getelementptr inbounds nuw %struct.mspack_system, ptr %75, i32 0, i32 7
  %77 = load ptr, ptr %76, align 8, !tbaa !10
  %78 = load ptr, ptr %6, align 8, !tbaa !3
  %79 = load i32, ptr %13, align 4, !tbaa !48
  %80 = sext i32 %79 to i64
  %81 = call ptr %77(ptr noundef %78, i64 noundef %80)
  store ptr %81, ptr %12, align 8, !tbaa !33
  %82 = icmp ne ptr %81, null
  br i1 %82, label %85, label %83

83:                                               ; preds = %74
  %84 = load ptr, ptr %9, align 8, !tbaa !133
  store i32 6, ptr %84, align 4, !tbaa !48
  store ptr null, ptr %5, align 8
  store i32 1, ptr %16, align 4
  br label %95

85:                                               ; preds = %74
  %86 = load ptr, ptr %6, align 8, !tbaa !3
  %87 = getelementptr inbounds nuw %struct.mspack_system, ptr %86, i32 0, i32 9
  %88 = load ptr, ptr %87, align 8, !tbaa !136
  %89 = getelementptr inbounds [256 x i8], ptr %11, i64 0, i64 0
  %90 = load ptr, ptr %12, align 8, !tbaa !33
  %91 = load i32, ptr %13, align 4, !tbaa !48
  %92 = sext i32 %91 to i64
  call void %88(ptr noundef %89, ptr noundef %90, i64 noundef %92)
  %93 = load ptr, ptr %9, align 8, !tbaa !133
  store i32 0, ptr %93, align 4, !tbaa !48
  %94 = load ptr, ptr %12, align 8, !tbaa !33
  store ptr %94, ptr %5, align 8
  store i32 1, ptr %16, align 4
  br label %95

95:                                               ; preds = %85, %83, %72, %57, %29
  call void @llvm.lifetime.end.p0(i64 4, ptr %15) #4
  call void @llvm.lifetime.end.p0(i64 4, ptr %14) #4
  call void @llvm.lifetime.end.p0(i64 4, ptr %13) #4
  call void @llvm.lifetime.end.p0(i64 8, ptr %12) #4
  call void @llvm.lifetime.end.p0(i64 256, ptr %11) #4
  call void @llvm.lifetime.end.p0(i64 8, ptr %10) #4
  %96 = load ptr, ptr %5, align 8
  ret ptr %96
}