; Function Attrs: nounwind uwtable
define internal fastcc ptr @cabd_read_string(ptr noundef %0, ptr noundef nonnull %1, i32 noundef range(i32 0, 2) %2, ptr noundef nonnull writeonly captures(none) %3) unnamed_addr #0 {
  %5 = alloca [256 x i8], align 16
  %6 = getelementptr inbounds nuw i8, ptr %0, i64 40
  %7 = load ptr, ptr %6, align 8, !tbaa !119
  %8 = tail call i64 %7(ptr noundef nonnull %1) #8
  call void @llvm.lifetime.start.p0(i64 256, ptr nonnull %5) #8
  %9 = getelementptr inbounds nuw i8, ptr %0, i64 16
  %10 = load ptr, ptr %9, align 8, !tbaa !71
  %11 = call i32 %10(ptr noundef nonnull %1, ptr noundef nonnull %5, i32 noundef 256) #8
  %12 = icmp slt i32 %11, 1
  br i1 %12, label %.thread, label %.preheader.preheader

.preheader.preheader:                             ; preds = %4
  %wide.trip.count = zext nneg i32 %11 to i64
  br label %.preheader

.preheader:                                       ; preds = %.preheader.preheader, %15
  %indvars.iv = phi i64 [ 0, %.preheader.preheader ], [ %indvars.iv.next, %15 ]
  %13 = getelementptr inbounds nuw [256 x i8], ptr %5, i64 0, i64 %indvars.iv
  %14 = load i8, ptr %13, align 1, !tbaa !73
  %.not.not.not = icmp eq i8 %14, 0
  br i1 %.not.not.not, label %16, label %15

15:                                               ; preds = %.preheader
  %indvars.iv.next = add nuw nsw i64 %indvars.iv, 1
  %exitcond.not = icmp eq i64 %indvars.iv.next, %wide.trip.count
  br i1 %exitcond.not, label %.thread, label %.preheader

16:                                               ; preds = %.preheader
  %17 = trunc nuw nsw i64 %indvars.iv to i32
  %18 = or i32 %2, %17
  %or.cond.not = icmp eq i32 %18, 0
  br i1 %or.cond.not, label %.thread, label %19

19:                                               ; preds = %16
  %20 = add nuw i64 %indvars.iv, 1
  %21 = getelementptr inbounds nuw i8, ptr %0, i64 32
  %22 = load ptr, ptr %21, align 8, !tbaa !75
  %23 = and i64 %20, 4294967295
  %24 = add nsw i64 %8, %23
  %25 = call i32 %22(ptr noundef nonnull %1, i64 noundef %24, i32 noundef 0) #8
  %.not34 = icmp eq i32 %25, 0
  br i1 %.not34, label %26, label %.thread

26:                                               ; preds = %19
  %27 = getelementptr inbounds nuw i8, ptr %0, i64 56
  %28 = load ptr, ptr %27, align 8, !tbaa !3
  %29 = call ptr %28(ptr noundef nonnull %0, i64 noundef %23) #8
  %.not35 = icmp eq ptr %29, null
  br i1 %.not35, label %.thread, label %30

30:                                               ; preds = %26
  %31 = getelementptr inbounds nuw i8, ptr %0, i64 72
  %32 = load ptr, ptr %31, align 8, !tbaa !120
  call void %32(ptr noundef nonnull %5, ptr noundef nonnull %29, i64 noundef %23) #8
  br label %.thread

.thread:                                          ; preds = %15, %26, %19, %16, %4, %30
  %.sink = phi i32 [ 0, %30 ], [ 3, %4 ], [ 8, %16 ], [ 5, %19 ], [ 6, %26 ], [ 8, %15 ]
  %.030 = phi ptr [ %29, %30 ], [ null, %4 ], [ null, %16 ], [ null, %19 ], [ null, %26 ], [ null, %15 ]
  store i32 %.sink, ptr %3, align 4, !tbaa !104
  call void @llvm.lifetime.end.p0(i64 256, ptr nonnull %5) #8
  ret ptr %.030
}